target datalayout = "e-m:e-p270:32:32-p271:32:32-p272:64:64-i64:64-i128:128-f80:128-n8:16:32:64-S128"
target triple = "x86_64-pc-linux-gnu"

%struct.Wln_Ret_t_ = type { ptr, %struct.Vec_Int_t_, %struct.Vec_Int_t_, %struct.Vec_Int_t_, %struct.Vec_Int_t_, %struct.Vec_Int_t_, %struct.Vec_Int_t_, %struct.Vec_Int_t_, %struct.Vec_Int_t_, %struct.Vec_Int_t_, %struct.Vec_Int_t_, i32, i32 }
%struct.Vec_Int_t_ = type { i32, i32, ptr }
%struct.Wln_Ntk_t_ = type { ptr, ptr, i32, %struct.Vec_Int_t_, %struct.Vec_Int_t_, %struct.Vec_Int_t_, %struct.Vec_Int_t_, ptr, %struct.Vec_Int_t_, ptr, %struct.Vec_Int_t_, %struct.Vec_Int_t_, ptr, %struct.Vec_Str_t_, i32, %struct.Vec_Int_t_, %struct.Vec_Int_t_, %struct.Vec_Int_t_, %struct.Vec_Int_t_, %struct.Vec_Int_t_, %struct.Vec_Int_t_, %struct.Vec_Int_t_, %struct.Vec_Int_t_, ptr, [99 x i32], [99 x i32] }
%struct.Vec_Str_t_ = type { i32, i32, ptr }
%struct.Wln_Vec_t_ = type { i32, i32, %union.anon }
%union.anon = type { [1 x ptr] }

; Function Attrs: inlinehint nounwind uwtable
define internal i32 @Wln_ObjType(ptr noundef %0, i32 noundef %1) #2 {
  %3 = alloca ptr, align 8
  %4 = alloca i32, align 4
  store ptr %0, ptr %3, align 8, !tbaa !18
  store i32 %1, ptr %4, align 4, !tbaa !8
  %5 = load ptr, ptr %3, align 8, !tbaa !18
  %6 = getelementptr inbounds nuw %struct.Wln_Ntk_t_, ptr %5, i32 0, i32 6
  %7 = load i32, ptr %4, align 4, !tbaa !8
  %8 = call i32 @Vec_IntEntry(ptr noundef %6, i32 noundef %7)
  ret i32 %8
}

; Function Attrs: inlinehint nounwind uwtable
define internal i32 @Vec_IntEntry(ptr noundef %0, i32 noundef %1) #2 {
  %3 = alloca ptr, align 8
  %4 = alloca i32, align 4
  store ptr %0, ptr %3, align 8, !tbaa !29
  store i32 %1, ptr %4, align 4, !tbaa !8
  %5 = load ptr, ptr %3, align 8, !tbaa !29
  %6 = getelementptr inbounds nuw %struct.Vec_Int_t_, ptr %5, i32 0, i32 2
  %7 = load ptr, ptr %6, align 8, !tbaa !31
  %8 = load i32, ptr %4, align 4, !tbaa !8
  %9 = sext i32 %8 to i64
  %10 = getelementptr inbounds i32, ptr %7, i64 %9
  %11 = load i32, ptr %10, align 4, !tbaa !8
  ret i32 %11
}

; Function Attrs: inlinehint nounwind uwtable
define internal i32 @Abc_MaxInt(i32 noundef %0, i32 noundef %1) #2 {
  %3 = alloca i32, align 4
  %4 = alloca i32, align 4
  store i32 %0, ptr %3, align 4, !tbaa !8
  store i32 %1, ptr %4, align 4, !tbaa !8
  %5 = load i32, ptr %3, align 4, !tbaa !8
  %6 = load i32, ptr %4, align 4, !tbaa !8
  %7 = icmp sgt i32 %5, %6
  br i1 %7, label %8, label %10

8:                                                ; preds = %2
  %9 = load i32, ptr %3, align 4, !tbaa !8
  br label %12

10:                                               ; preds = %2
  %11 = load i32, ptr %4, align 4, !tbaa !8
  br label %12

12:                                               ; preds = %10, %8
  %13 = phi i32 [ %9, %8 ], [ %11, %10 ]
  ret i32 %13
}

; Function Attrs: inlinehint nounwind uwtable
define internal i32 @Wln_ObjIsFf(ptr noundef %0, i32 noundef %1) #2 {
  %3 = alloca ptr, align 8
  %4 = alloca i32, align 4
  store ptr %0, ptr %3, align 8, !tbaa !18
  store i32 %1, ptr %4, align 4, !tbaa !8
  %5 = load ptr, ptr %3, align 8, !tbaa !18
  %6 = load i32, ptr %4, align 4, !tbaa !8
  %7 = call i32 @Wln_ObjType(ptr noundef %5, i32 noundef %6)
  %8 = icmp eq i32 %7, 89
  %9 = zext i1 %8 to i32
  ret i32 %9
}

; Function Attrs: inlinehint nounwind uwtable
define internal i32 @Wln_ObjIsCi(ptr noundef %0, i32 noundef %1) #2 {
  %3 = alloca ptr, align 8
  %4 = alloca i32, align 4
  store ptr %0, ptr %3, align 8, !tbaa !18
  store i32 %1, ptr %4, align 4, !tbaa !8
  %5 = load ptr, ptr %3, align 8, !tbaa !18
  %6 = load i32, ptr %4, align 4, !tbaa !8
  %7 = call i32 @Wln_ObjType(ptr noundef %5, i32 noundef %6)
  %8 = icmp eq i32 %7, 3
  %9 = zext i1 %8 to i32
  ret i32 %9
}

; Function Attrs: inlinehint nounwind uwtable
define internal ptr @Wln_RetFanins(ptr noundef %0, i32 noundef %1) #2 {
  %3 = alloca ptr, align 8
  %4 = alloca i32, align 4
  store ptr %0, ptr %3, align 8, !tbaa !3
  store i32 %1, ptr %4, align 4, !tbaa !8
  %5 = load ptr, ptr %3, align 8, !tbaa !3
  %6 = getelementptr inbounds nuw %struct.Wln_Ret_t_, ptr %5, i32 0, i32 1
  %7 = load ptr, ptr %3, align 8, !tbaa !3
  %8 = getelementptr inbounds nuw %struct.Wln_Ret_t_, ptr %7, i32 0, i32 1
  %9 = load i32, ptr %4, align 4, !tbaa !8
  %10 = call i32 @Vec_IntEntry(ptr noundef %8, i32 noundef %9)
  %11 = call ptr @Vec_IntEntryP(ptr noundef %6, i32 noundef %10)
  ret ptr %11
}

; Function Attrs: inlinehint nounwind uwtable
define internal i32 @Wln_ObjFaninNum(ptr noundef %0, i32 noundef %1) #2 {
  %3 = alloca ptr, align 8
  %4 = alloca i32, align 4
  store ptr %0, ptr %3, align 8, !tbaa !18
  store i32 %1, ptr %4, align 4, !tbaa !8
  %5 = load ptr, ptr %3, align 8, !tbaa !18
  %6 = getelementptr inbounds nuw %struct.Wln_Ntk_t_, ptr %5, i32 0, i32 7
  %7 = load ptr, ptr %6, align 8, !tbaa !19
  %8 = load i32, ptr %4, align 4, !tbaa !8
  %9 = sext i32 %8 to i64
  %10 = getelementptr inbounds %struct.Wln_Vec_t_, ptr %7, i64 %9
  %11 = getelementptr inbounds nuw %struct.Wln_Vec_t_, ptr %10, i32 0, i32 1
  %12 = load i32, ptr %11, align 4, !tbaa !27
  ret i32 %12
}

; Function Attrs: inlinehint nounwind uwtable
define internal ptr @Vec_IntEntryP(ptr noundef %0, i32 noundef %1) #2 {
  %3 = alloca ptr, align 8
  %4 = alloca i32, align 4
  store ptr %0, ptr %3, align 8, !tbaa !29
  store i32 %1, ptr %4, align 4, !tbaa !8
  %5 = load ptr, ptr %3, align 8, !tbaa !29
  %6 = getelementptr inbounds nuw %struct.Vec_Int_t_, ptr %5, i32 0, i32 2
  %7 = load ptr, ptr %6, align 8, !tbaa !31
  %8 = load i32, ptr %4, align 4, !tbaa !8
  %9 = sext i32 %8 to i64
  %10 = getelementptr inbounds i32, ptr %7, i64 %9
  ret ptr %10
}

; Function Attrs: nounwind uwtable
define i32 @Wln_RetPropDelay_rec(ptr noundef %0, i32 noundef %1) #0 {
  %3 = alloca i32, align 4
  %4 = alloca ptr, align 8
  %5 = alloca i32, align 4
  %6 = alloca i32, align 4
  %7 = alloca i32, align 4
  %8 = alloca ptr, align 8
  %9 = alloca ptr, align 8
  %10 = alloca i32, align 4
  store ptr %0, ptr %4, align 8, !tbaa !3
  store i32 %1, ptr %5, align 4, !tbaa !8
  call void @llvm.lifetime.start.p0(i64 4, ptr %6) #11
  call void @llvm.lifetime.start.p0(i64 4, ptr %7) #11
  call void @llvm.lifetime.start.p0(i64 8, ptr %8) #11
  call void @llvm.lifetime.start.p0(i64 8, ptr %9) #11
  %11 = load ptr, ptr %4, align 8, !tbaa !3
  %12 = getelementptr inbounds nuw %struct.Wln_Ret_t_, ptr %11, i32 0, i32 6
  %13 = load i32, ptr %5, align 4, !tbaa !8
  %14 = call ptr @Vec_IntEntryP(ptr noundef %12, i32 noundef %13)
  store ptr %14, ptr %9, align 8, !tbaa !15
  %15 = load ptr, ptr %9, align 8, !tbaa !15
  %16 = load i32, ptr %15, align 4, !tbaa !8
  %17 = icmp sge i32 %16, 0
  br i1 %17, label %18, label %21

18:                                               ; preds = %2
  %19 = load ptr, ptr %9, align 8, !tbaa !15
  %20 = load i32, ptr %19, align 4, !tbaa !8
  store i32 %20, ptr %3, align 4
  store i32 1, ptr %10, align 4
  br label %114

21:                                               ; preds = %2
  %22 = load ptr, ptr %9, align 8, !tbaa !15
  store i32 0, ptr %22, align 4, !tbaa !8
  store i32 0, ptr %6, align 4, !tbaa !8
  br label %23

23:                                               ; preds = %101, %21
  %24 = load i32, ptr %6, align 4, !tbaa !8
  %25 = load ptr, ptr %4, align 8, !tbaa !3
  %26 = getelementptr inbounds nuw %struct.Wln_Ret_t_, ptr %25, i32 0, i32 0
  %27 = load ptr, ptr %26, align 8, !tbaa !10
  %28 = load i32, ptr %5, align 4, !tbaa !8
  %29 = call i32 @Wln_ObjFaninNum(ptr noundef %27, i32 noundef %28)
  %30 = icmp slt i32 %24, %29
  br i1 %30, label %31, label %50

31:                                               ; preds = %23
  %32 = load ptr, ptr %4, align 8, !tbaa !3
  %33 = load i32, ptr %5, align 4, !tbaa !8
  %34 = call ptr @Wln_RetFanins(ptr noundef %32, i32 noundef %33)
  %35 = load i32, ptr %6, align 4, !tbaa !8
  %36 = mul nsw i32 2, %35
  %37 = sext i32 %36 to i64
  %38 = getelementptr inbounds i32, ptr %34, i64 %37
  %39 = load i32, ptr %38, align 4, !tbaa !8
  store i32 %39, ptr %7, align 4, !tbaa !8
  br i1 true, label %40, label %50

40:                                               ; preds = %31
  %41 = load ptr, ptr %4, align 8, !tbaa !3
  %42 = load i32, ptr %5, align 4, !tbaa !8
  %43 = call ptr @Wln_RetFanins(ptr noundef %41, i32 noundef %42)
  %44 = load i32, ptr %6, align 4, !tbaa !8
  %45 = mul nsw i32 2, %44
  %46 = sext i32 %45 to i64
  %47 = getelementptr inbounds i32, ptr %43, i64 %46
  %48 = getelementptr inbounds i32, ptr %47, i64 1
  store ptr %48, ptr %8, align 8, !tbaa !15
  %49 = icmp ne ptr %48, null
  br label %50

50:                                               ; preds = %40, %31, %23
  %51 = phi i1 [ false, %31 ], [ false, %23 ], [ %49, %40 ]
  br i1 %51, label %52, label %104

52:                                               ; preds = %50
  %53 = load i32, ptr %7, align 4, !tbaa !8
  %54 = icmp ne i32 %53, 0
  br i1 %54, label %55, label %69

55:                                               ; preds = %52
  %56 = load ptr, ptr %4, align 8, !tbaa !3
  %57 = getelementptr inbounds nuw %struct.Wln_Ret_t_, ptr %56, i32 0, i32 0
  %58 = load ptr, ptr %57, align 8, !tbaa !10
  %59 = load i32, ptr %7, align 4, !tbaa !8
  %60 = call i32 @Wln_ObjFaninNum(ptr noundef %58, i32 noundef %59)
  %61 = icmp ne i32 %60, 0
  br i1 %61, label %70, label %62

62:                                               ; preds = %55
  %63 = load ptr, ptr %4, align 8, !tbaa !3
  %64 = getelementptr inbounds nuw %struct.Wln_Ret_t_, ptr %63, i32 0, i32 0
  %65 = load ptr, ptr %64, align 8, !tbaa !10
  %66 = load i32, ptr %7, align 4, !tbaa !8
  %67 = call i32 @Wln_ObjIsCi(ptr noundef %65, i32 noundef %66)
  %68 = icmp ne i32 %67, 0
  br i1 %68, label %70, label %69

69:                                               ; preds = %62, %52
  br label %100

70:                                               ; preds = %62, %55
  %71 = load ptr, ptr %4, align 8, !tbaa !3
  %72 = getelementptr inbounds nuw %struct.Wln_Ret_t_, ptr %71, i32 0, i32 0
  %73 = load ptr, ptr %72, align 8, !tbaa !10
  %74 = load i32, ptr %5, align 4, !tbaa !8
  %75 = call i32 @Wln_ObjIsFf(ptr noundef %73, i32 noundef %74)
  %76 = icmp ne i32 %75, 0
  br i1 %76, label %77, label %81

77:                                               ; preds = %70
  %78 = load i32, ptr %6, align 4, !tbaa !8
  %79 = icmp sgt i32 %78, 0
  br i1 %79, label %80, label %81

80:                                               ; preds = %77
  br label %101

81:                                               ; preds = %77, %70
  %82 = load ptr, ptr %8, align 8, !tbaa !15
  %83 = getelementptr inbounds i32, ptr %82, i64 0
  %84 = load i32, ptr %83, align 4, !tbaa !8
  %85 = icmp ne i32 %84, 0
  br i1 %85, label %86, label %91

86:                                               ; preds = %81
  %87 = load ptr, ptr %9, align 8, !tbaa !15
  %88 = load i32, ptr %87, align 4, !tbaa !8
  %89 = call i32 @Abc_MaxInt(i32 noundef %88, i32 noundef 0)
  %90 = load ptr, ptr %9, align 8, !tbaa !15
  store i32 %89, ptr %90, align 4, !tbaa !8
  br label %99

91:                                               ; preds = %81
  %92 = load ptr, ptr %9, align 8, !tbaa !15
  %93 = load i32, ptr %92, align 4, !tbaa !8
  %94 = load ptr, ptr %4, align 8, !tbaa !3
  %95 = load i32, ptr %7, align 4, !tbaa !8
  %96 = call i32 @Wln_RetPropDelay_rec(ptr noundef %94, i32 noundef %95)
  %97 = call i32 @Abc_MaxInt(i32 noundef %93, i32 noundef %96)
  %98 = load ptr, ptr %9, align 8, !tbaa !15
  store i32 %97, ptr %98, align 4, !tbaa !8
  br label %99

99:                                               ; preds = %91, %86
  br label %100

100:                                              ; preds = %99, %69
  br label %101

101:                                              ; preds = %100, %80
  %102 = load i32, ptr %6, align 4, !tbaa !8
  %103 = add nsw i32 %102, 1
  store i32 %103, ptr %6, align 4, !tbaa !8
  br label %23, !llvm.loop !86

104:                                              ; preds = %50
  %105 = load ptr, ptr %4, align 8, !tbaa !3
  %106 = getelementptr inbounds nuw %struct.Wln_Ret_t_, ptr %105, i32 0, i32 5
  %107 = load i32, ptr %5, align 4, !tbaa !8
  %108 = call i32 @Vec_IntEntry(ptr noundef %106, i32 noundef %107)
  %109 = load ptr, ptr %9, align 8, !tbaa !15
  %110 = load i32, ptr %109, align 4, !tbaa !8
  %111 = add nsw i32 %110, %108
  store i32 %111, ptr %109, align 4, !tbaa !8
  %112 = load ptr, ptr %9, align 8, !tbaa !15
  %113 = load i32, ptr %112, align 4, !tbaa !8
  store i32 %113, ptr %3, align 4
  store i32 1, ptr %10, align 4
  br label %114

114:                                              ; preds = %104, %18
  call void @llvm.lifetime.end.p0(i64 8, ptr %9) #11
  call void @llvm.lifetime.end.p0(i64 8, ptr %8) #11
  call void @llvm.lifetime.end.p0(i64 4, ptr %7) #11
  call void @llvm.lifetime.end.p0(i64 4, ptr %6) #11
  %115 = load i32, ptr %3, align 4
  ret i32 %115
}