; Function Attrs: nofree nosync nounwind memory(readwrite, inaccessiblemem: none) uwtable
define i32 @Wln_RetPropDelay_rec(ptr noundef readonly captures(none) %0, i32 noundef %1) local_unnamed_addr #12 {
  %3 = getelementptr i8, ptr %0, i64 96
  %.val43 = load ptr, ptr %3, align 8, !tbaa !12
  %4 = sext i32 %1 to i64
  %5 = getelementptr inbounds i32, ptr %.val43, i64 %4
  %6 = load i32, ptr %5, align 4, !tbaa !13
  %7 = icmp sgt i32 %6, -1
  br i1 %7, label %57, label %8

8:                                                ; preds = %2
  store i32 0, ptr %5, align 4, !tbaa !13
  %9 = load ptr, ptr %0, align 8, !tbaa !3
  %10 = getelementptr i8, ptr %9, i64 88
  %.val4249 = load ptr, ptr %10, align 8, !tbaa !14
  %11 = getelementptr inbounds %struct.Wln_Vec_t_, ptr %.val4249, i64 %4, i32 1
  %12 = load i32, ptr %11, align 4, !tbaa !22
  %13 = icmp sgt i32 %12, 0
  br i1 %13, label %.lr.ph, label %.critedge

.lr.ph:                                           ; preds = %8
  %14 = getelementptr i8, ptr %0, i64 16
  br label %15

15:                                               ; preds = %.lr.ph, %44
  %16 = phi ptr [ %9, %.lr.ph ], [ %45, %44 ]
  %17 = phi i32 [ 0, %.lr.ph ], [ %46, %44 ]
  %indvars.iv = phi i64 [ 0, %.lr.ph ], [ %indvars.iv.next, %44 ]
  %.val4251 = phi ptr [ %.val4249, %.lr.ph ], [ %.val42, %44 ]
  %.val45 = load ptr, ptr %14, align 8, !tbaa !12
  %18 = getelementptr inbounds i32, ptr %.val45, i64 %4
  %19 = load i32, ptr %18, align 4, !tbaa !13
  %20 = sext i32 %19 to i64
  %21 = getelementptr inbounds i32, ptr %.val45, i64 %20
  %.idx = shl nuw nsw i64 %indvars.iv, 3
  %22 = getelementptr inbounds nuw i8, ptr %21, i64 %.idx
  %23 = load i32, ptr %22, align 4, !tbaa !13
  %24 = getelementptr inbounds nuw i8, ptr %22, i64 4
  %.not = icmp eq i32 %23, 0
  br i1 %.not, label %44, label %25

25:                                               ; preds = %15
  %26 = sext i32 %23 to i64
  %27 = getelementptr inbounds %struct.Wln_Vec_t_, ptr %.val4251, i64 %26, i32 1
  %28 = load i32, ptr %27, align 4, !tbaa !22
  %.not38 = icmp eq i32 %28, 0
  %29 = getelementptr i8, ptr %16, i64 80
  %.val46 = load ptr, ptr %29, align 8, !tbaa !12
  br i1 %.not38, label %30, label %._crit_edge

30:                                               ; preds = %25
  %31 = getelementptr inbounds i32, ptr %.val46, i64 %26
  %32 = load i32, ptr %31, align 4, !tbaa !13
  %.not48 = icmp eq i32 %32, 3
  br i1 %.not48, label %._crit_edge, label %44

._crit_edge:                                      ; preds = %25, %30
  %33 = getelementptr inbounds i32, ptr %.val46, i64 %4
  %34 = load i32, ptr %33, align 4, !tbaa !13
  %35 = icmp eq i32 %34, 89
  %36 = icmp ne i64 %indvars.iv, 0
  %or.cond = and i1 %36, %35
  br i1 %or.cond, label %44, label %37

37:                                               ; preds = %._crit_edge
  %38 = load i32, ptr %24, align 4, !tbaa !13
  %.not40 = icmp eq i32 %38, 0
  br i1 %.not40, label %41, label %39

39:                                               ; preds = %37
  %40 = tail call noundef i32 @llvm.smax.i32(i32 %17, i32 0)
  store i32 %40, ptr %5, align 4, !tbaa !13
  br label %44

41:                                               ; preds = %37
  %42 = tail call i32 @Wln_RetPropDelay_rec(ptr noundef nonnull %0, i32 noundef %23)
  %43 = tail call noundef i32 @llvm.smax.i32(i32 %17, i32 %42)
  store i32 %43, ptr %5, align 4, !tbaa !13
  %.pre = load ptr, ptr %0, align 8, !tbaa !3
  br label %44

44:                                               ; preds = %30, %15, %41, %39, %._crit_edge
  %45 = phi ptr [ %16, %30 ], [ %16, %15 ], [ %.pre, %41 ], [ %16, %39 ], [ %16, %._crit_edge ]
  %46 = phi i32 [ %17, %30 ], [ %17, %15 ], [ %43, %41 ], [ %40, %39 ], [ %17, %._crit_edge ]
  %indvars.iv.next = add nuw nsw i64 %indvars.iv, 1
  %47 = getelementptr i8, ptr %45, i64 88
  %.val42 = load ptr, ptr %47, align 8, !tbaa !14
  %48 = getelementptr inbounds %struct.Wln_Vec_t_, ptr %.val42, i64 %4, i32 1
  %49 = load i32, ptr %48, align 4, !tbaa !22
  %50 = sext i32 %49 to i64
  %51 = icmp slt i64 %indvars.iv.next, %50
  br i1 %51, label %15, label %.critedge, !llvm.loop !82

.critedge:                                        ; preds = %44, %8
  %52 = phi i32 [ 0, %8 ], [ %46, %44 ]
  %53 = getelementptr i8, ptr %0, i64 80
  %.val = load ptr, ptr %53, align 8, !tbaa !12
  %54 = getelementptr inbounds i32, ptr %.val, i64 %4
  %55 = load i32, ptr %54, align 4, !tbaa !13
  %56 = add nsw i32 %52, %55
  store i32 %56, ptr %5, align 4, !tbaa !13
  br label %57

57:                                               ; preds = %2, %.critedge
  %.0 = phi i32 [ %56, %.critedge ], [ %6, %2 ]
  ret i32 %.0
}